Certificate:
    Data:
        Version: 3 (0x2)
        Serial Number: 1 (0x1)
        Signature Algorithm: sha256WithRSAEncryption
        Issuer: C=CN, ST=HK, L=HK, O=CUHK, CN=GAO Mingyuan/emailAddress=1155107738@link.cuhk.edu.hk
        Validity
            Not Before: Mar 14 01:14:38 2020 GMT
            Not After : Mar 14 01:14:38 2021 GMT
        Subject: CN=GAO Mingyuan, ST=HK, C=CN/emailAddress=1155107738@link.cuhk.edu.hk, O=CUHK
        Subject Public Key Info:
            Public Key Algorithm: rsaEncryption
                RSA Public-Key: (1024 bit)
                Modulus:
                    00:a5:89:8d:5f:a8:3e:29:cb:80:3f:79:02:58:87:
                    b0:7e:cb:2c:16:bc:96:0d:40:16:12:a0:e4:38:1f:
                    7d:b7:19:02:e7:c7:4e:22:e1:d5:28:17:a9:c2:a8:
                    fa:fc:d3:11:a9:63:29:2f:64:19:50:71:24:94:e6:
                    0b:e2:10:d3:78:95:2a:49:d7:8c:40:45:26:9a:d5:
                    e9:65:1d:2b:84:23:f7:df:8b:22:c6:b5:52:26:78:
                    c2:49:9c:15:36:78:bf:48:80:82:c2:db:26:91:b7:
                    21:34:68:ae:d5:b9:2a:94:23:a1:06:74:28:4e:62:
                    b8:62:e8:d0:6a:f7:e7:0a:9d
                Exponent: 65537 (0x10001)
        X509v3 extensions:
            X509v3 Basic Constraints: 
                CA:FALSE
    Signature Algorithm: sha256WithRSAEncryption
         26:03:6c:06:dd:a6:41:37:7a:2e:3c:8d:8c:e8:d2:6b:c1:0d:
         0c:08:07:ed:5a:f1:bc:7f:56:1c:5c:ac:cb:14:46:a5:84:3e:
         bd:af:85:fd:cd:6a:92:cd:69:34:25:40:31:4c:84:b7:af:82:
         aa:ef:ab:4a:82:21:95:29:97:79:a5:97:7e:e3:0c:c2:71:0f:
         b1:8e:64:05:77:a2:71:7c:77:ec:2b:e0:bb:75:53:4c:56:0a:
         60:bd:e1:f9:9a:06:ea:b4:34:51:6f:41:a0:5e:7f:e3:d8:a0:
         81:36:49:44:b4:19:c2:77:64:34:9f:da:78:85:4d:e3:ef:c4:
         2e:01
-----BEGIN CERTIFICATE-----
MIICaDCCAdGgAwIBAgIBATANBgkqhkiG9w0BAQsFADB5MQswCQYDVQQGEwJDTjEL
MAkGA1UECAwCSEsxCzAJBgNVBAcMAkhLMQ0wCwYDVQQKDARDVUhLMRUwEwYDVQQD
DAxHQU8gTWluZ3l1YW4xKjAoBgkqhkiG9w0BCQEWGzExNTUxMDc3MzhAbGluay5j
dWhrLmVkdS5oazAeFw0yMDAzMTQwMTE0MzhaFw0yMTAzMTQwMTE0MzhaMGwxFTAT
BgNVBAMMDEdBTyBNaW5neXVhbjELMAkGA1UECAwCSEsxCzAJBgNVBAYTAkNOMSow
KAYJKoZIhvcNAQkBFhsxMTU1MTA3NzM4QGxpbmsuY3Voay5lZHUuaGsxDTALBgNV
BAoMBENVSEswgZ8wDQYJKoZIhvcNAQEBBQADgY0AMIGJAoGBAKWJjV+oPinLgD95
AliHsH7LLBa8lg1AFhKg5DgffbcZAufHTiLh1SgXqcKo+vzTEaljKS9kGVBxJJTm
C+IQ03iVKknXjEBFJprV6WUdK4Qj99+LIsa1UiZ4wkmcFTZ4v0iAgsLbJpG3ITRo
rtW5KpQjoQZ0KE5iuGLo0Gr35wqdAgMBAAGjDTALMAkGA1UdEwQCMAAwDQYJKoZI
hvcNAQELBQADgYEAJgNsBt2mQTd6LjyNjOjSa8ENDAgH7VrxvH9WHFysyxRGpYQ+
va+F/c1qks1pNCVAMUyEt6+Cqu+rSoIhlSmXeaWXfuMMwnEPsY5kBXeicXx37Cvg
u3VTTFYKYL3h+ZoG6rQ0UW9BoF5/49iggTZJRLQZwndkNJ/aeIVN4+/ELgE=
-----END CERTIFICATE-----
